; Function Attrs: mustprogress uwtable
define void @_ZN8proxygen15HTTPSessionBase18updateWriteBufSizeEl(ptr nocapture noundef nonnull align 8 dereferenceable(1582) %this, i64 noundef %delta) local_unnamed_addr #3 align 2 personality ptr @__gxx_personality_v0 {
entry:
  %pendingWriteSizeDelta_ = getelementptr inbounds i8, ptr %this, i64 1568
  %0 = load i64, ptr %pendingWriteSizeDelta_, align 8
  %add = add nsw i64 %0, %delta
  store i64 0, ptr %pendingWriteSizeDelta_, align 8
  %sessionStats_ = getelementptr inbounds i8, ptr %this, i64 208
  %1 = load ptr, ptr %sessionStats_, align 8
  %tobool.not = icmp eq ptr %1, null
  br i1 %tobool.not, label %if.end, label %if.then

if.then:                                          ; preds = %entry
  %vtable = load ptr, ptr %1, align 8
  %vfn = getelementptr inbounds i8, ptr %vtable, i64 176
  %2 = load ptr, ptr %vfn, align 8
  tail call void %2(ptr noundef nonnull align 8 dereferenceable(8) %1, i64 noundef %add) #21
  br label %if.end

if.end:                                           ; preds = %if.then, %entry
  %pendingWriteSize_12 = getelementptr inbounds i8, ptr %this, i64 1560
  %3 = load i64, ptr %pendingWriteSize_12, align 8
  %add13 = add i64 %3, %add
  store i64 %add13, ptr %pendingWriteSize_12, align 8
  ret void
}